target datalayout = "e-m:e-p270:32:32-p271:32:32-p272:64:64-i64:64-i128:128-f80:128-n8:16:32:64-S128"
target triple = "x86_64-pc-linux-gnu"

@GUC_check_errdetail_string = external global ptr, align 8
@.str.73 = private unnamed_addr constant [42 x i8] c"\22%s\22 is too long (maximum %d characters).\00", align 1
@.str.74 = private unnamed_addr constant [21 x i8] c"recovery_target_name\00", align 1

; Function Attrs: nounwind uwtable
define dso_local zeroext i1 @check_recovery_target_name(ptr noundef %0, ptr noundef %1, i32 noundef %2) #0 {
  %4 = alloca i1, align 1
  %5 = alloca ptr, align 8
  %6 = alloca ptr, align 8
  %7 = alloca i32, align 4
  store ptr %0, ptr %5, align 8
  store ptr %1, ptr %6, align 8
  store i32 %2, ptr %7, align 4
  %8 = load ptr, ptr %5, align 8
  %9 = load ptr, ptr %8, align 8
  %10 = call i64 @strlen(ptr noundef %9) #16
  %11 = icmp uge i64 %10, 64
  br i1 %11, label %12, label %16

12:                                               ; preds = %3
  %13 = call ptr @__errno_location() #17
  %14 = load i32, ptr %13, align 4
  call void @pre_format_elog_string(i32 noundef %14, ptr noundef null)
  %15 = call ptr (ptr, ...) @format_elog_string(ptr noundef @.str.73, ptr noundef @.str.74, i32 noundef 63)
  store ptr %15, ptr @GUC_check_errdetail_string, align 8
  store i1 false, ptr %4, align 1
  br label %17

16:                                               ; preds = %3
  store i1 true, ptr %4, align 1
  br label %17

17:                                               ; preds = %16, %12
  %18 = load i1, ptr %4, align 1
  ret i1 %18
}