; Function Attrs: nounwind uwtable
define dso_local noundef zeroext i1 @check_recovery_target_name(ptr noundef readonly captures(none) %0, ptr noundef readnone captures(none) %1, i32 noundef %2) local_unnamed_addr #2 {
  %4 = load ptr, ptr %0, align 8
  %5 = tail call i64 @strlen(ptr noundef nonnull dereferenceable(1) %4) #26
  %6 = icmp ult i64 %5, 64
  br i1 %6, label %11, label %7

7:                                                ; preds = %3
  %8 = tail call ptr @__errno_location() #25
  %9 = load i32, ptr %8, align 4
  tail call void @pre_format_elog_string(i32 noundef %9, ptr noundef null) #23
  %10 = tail call ptr (ptr, ...) @format_elog_string(ptr noundef nonnull @.str.73, ptr noundef nonnull @.str.74, i32 noundef 63) #23
  store ptr %10, ptr @GUC_check_errdetail_string, align 8
  br label %11

11:                                               ; preds = %3, %7
  ret i1 %6
}